Certificate:
    Data:
        Version: 3 (0x2)
        Serial Number: 1 (0x1)
    Signature Algorithm: sha1WithRSAEncryption
        Issuer: DC=org, DC=simple, O=Simple Inc, OU=Simple Signing CA, CN=Simple Signing CA
        Validity
            Not Before: Apr 18 18:04:04 2019 GMT
            Not After : Apr 17 18:04:04 2021 GMT
        Subject: DC=org, DC=simple, O=Simple Inc, CN=Fred Flintstone
        Subject Public Key Info:
            Public Key Algorithm: rsaEncryption
                Public-Key: (2048 bit)
                Modulus:
                    00:c0:2b:88:0c:33:07:44:82:db:b5:bd:a9:54:c3:
                    d3:ed:73:36:65:9d:8a:10:7c:c8:f9:43:ee:6f:74:
                    ec:f2:69:e0:b5:b7:fb:c4:9f:d4:6e:63:c1:b0:ac:
                    59:2b:0c:90:e3:92:d5:bd:28:ef:d5:93:25:c4:ae:
                    11:ab:b1:10:15:9a:e0:19:a2:c5:82:9f:59:00:0b:
                    db:77:eb:57:22:a4:a8:cc:69:df:b0:f2:f8:4a:1c:
                    06:d3:5b:a3:db:e4:15:21:3b:6f:22:84:dc:9d:f4:
                    52:9f:87:d8:b9:0d:43:3c:4e:5a:80:42:37:5a:03:
                    00:56:d7:51:47:ba:5a:96:bb:02:76:0d:b8:93:c6:
                    16:c2:79:d5:35:43:d0:97:ab:da:ae:39:75:d1:55:
                    32:d0:da:2b:b5:1a:ba:a5:de:28:6a:81:c3:b0:20:
                    5b:51:e4:76:98:b5:c6:bb:aa:e9:8b:8b:cf:ae:c7:
                    98:38:21:71:74:d5:b4:a3:b8:8a:9b:8d:17:a7:f0:
                    d3:5a:51:94:26:64:0d:95:3a:a9:1a:8d:3a:70:03:
                    b7:93:c8:14:87:8d:92:6c:41:04:67:c4:f1:d0:71:
                    46:4e:d9:84:be:cc:c7:bd:70:fc:21:a9:1f:f1:5f:
                    15:5d:03:ec:41:a5:bd:f3:c7:62:76:6d:91:3c:9f:
                    bf:c7
                Exponent: 65537 (0x10001)
        X509v3 extensions:
            X509v3 Key Usage: critical
                Digital Signature, Key Encipherment
            X509v3 Basic Constraints: 
                CA:FALSE
            X509v3 Extended Key Usage: 
                E-mail Protection, TLS Web Client Authentication
            X509v3 Subject Key Identifier: 
                39:77:E7:75:32:2F:EE:BC:83:08:08:6D:95:99:FD:22:AF:0F:C0:B8
            X509v3 Authority Key Identifier: 
                keyid:99:BE:BF:71:7D:FE:2F:8B:25:50:97:8C:A7:F4:C9:59:04:65:73:18

            X509v3 Subject Alternative Name: 
                email:fred@simple.org
    Signature Algorithm: sha1WithRSAEncryption
         a2:75:b4:82:7f:75:01:53:56:8d:1b:0d:77:7d:03:e2:fc:20:
         34:64:4e:1b:26:52:c8:7e:dd:fa:7b:f6:58:81:0d:d2:cb:8e:
         34:e9:ee:18:f4:01:e1:cb:17:35:62:f4:20:9f:3f:05:26:56:
         34:45:6a:f2:61:9f:17:9e:2e:05:03:3a:99:64:5f:11:51:5b:
         28:97:5d:6e:ad:3a:de:a6:75:5f:9b:ad:86:d1:69:20:d7:7a:
         17:b7:51:04:3f:ab:cf:4f:b1:1f:9b:a5:4c:94:0a:f5:54:2c:
         93:8c:3a:86:75:7f:15:3d:8a:a6:ef:42:34:ec:c4:01:33:57:
         ef:64:c9:e5:bf:a7:71:0f:d9:c1:ba:84:91:a8:c9:96:49:4d:
         53:81:b4:de:26:ad:9c:6f:32:8a:a4:52:83:60:1c:c7:98:c3:
         ba:d9:20:c1:6a:63:7f:94:dc:55:27:cd:8f:be:1b:2a:d6:9e:
         f1:5f:39:e2:05:20:fd:91:31:ba:6f:16:82:6a:af:e6:55:4a:
         40:61:2f:16:79:90:2a:32:21:6e:ac:ac:17:a7:93:14:bc:7f:
         2f:55:8f:63:45:72:fb:c1:dc:af:58:97:e5:80:4f:36:d2:35:
         d4:e5:c2:b4:07:e2:6b:ee:4c:48:b6:37:cd:02:77:23:7e:a0:
         6a:69:dc:2b
-----BEGIN CERTIFICATE-----
MIID6zCCAtOgAwIBAgIBATANBgkqhkiG9w0BAQUFADB6MRMwEQYKCZImiZPyLGQB
GRYDb3JnMRYwFAYKCZImiZPyLGQBGRYGc2ltcGxlMRMwEQYDVQQKDApTaW1wbGUg
SW5jMRowGAYDVQQLDBFTaW1wbGUgU2lnbmluZyBDQTEaMBgGA1UEAwwRU2ltcGxl
IFNpZ25pbmcgQ0EwHhcNMTkwNDE4MTgwNDA0WhcNMjEwNDE3MTgwNDA0WjBcMRMw
EQYKCZImiZPyLGQBGRYDb3JnMRYwFAYKCZImiZPyLGQBGRYGc2ltcGxlMRMwEQYD
VQQKDApTaW1wbGUgSW5jMRgwFgYDVQQDDA9GcmVkIEZsaW50c3RvbmUwggEiMA0G
CSqGSIb3DQEBAQUAA4IBDwAwggEKAoIBAQDAK4gMMwdEgtu1valUw9PtczZlnYoQ
fMj5Q+5vdOzyaeC1t/vEn9RuY8GwrFkrDJDjktW9KO/VkyXErhGrsRAVmuAZosWC
n1kAC9t361cipKjMad+w8vhKHAbTW6Pb5BUhO28ihNyd9FKfh9i5DUM8TlqAQjda
AwBW11FHulqWuwJ2DbiTxhbCedU1Q9CXq9quOXXRVTLQ2iu1Grql3ihqgcOwIFtR
5HaYtca7qumLi8+ux5g4IXF01bSjuIqbjRen8NNaUZQmZA2VOqkajTpwA7eTyBSH
jZJsQQRnxPHQcUZO2YS+zMe9cPwhqR/xXxVdA+xBpb3zx2J2bZE8n7/HAgMBAAGj
gZkwgZYwDgYDVR0PAQH/BAQDAgWgMAkGA1UdEwQCMAAwHQYDVR0lBBYwFAYIKwYB
BQUHAwQGCCsGAQUFBwMCMB0GA1UdDgQWBBQ5d+d1Mi/uvIMICG2Vmf0irw/AuDAf
BgNVHSMEGDAWgBSZvr9xff4viyVQl4yn9MlZBGVzGDAaBgNVHREEEzARgQ9mcmVk
QHNpbXBsZS5vcmcwDQYJKoZIhvcNAQEFBQADggEBAKJ1tIJ/dQFTVo0bDXd9A+L8
IDRkThsmUsh+3fp79liBDdLLjjTp7hj0AeHLFzVi9CCfPwUmVjRFavJhnxeeLgUD
OplkXxFRWyiXXW6tOt6mdV+brYbRaSDXehe3UQQ/q89PsR+bpUyUCvVULJOMOoZ1
fxU9iqbvQjTsxAEzV+9kyeW/p3EP2cG6hJGoyZZJTVOBtN4mrZxvMoqkUoNgHMeY
w7rZIMFqY3+U3FUnzY++GyrWnvFfOeIFIP2RMbpvFoJqr+ZVSkBhLxZ5kCoyIW6s
rBenkxS8fy9Vj2NFcvvB3K9Yl+WATzbSNdTlwrQH4mvuTEi2N80CdyN+oGpp3Cs=
-----END CERTIFICATE-----
