Certificate:
    Data:
        Version: 3 (0x2)
        Serial Number: 2 (0x2)
    Signature Algorithm: sha1WithRSAEncryption
        Issuer: DC=org, DC=simple, O=Simple Inc, OU=Simple Root CA, CN=Simple Root CA
        Validity
            Not Before: Apr 18 17:59:38 2019 GMT
            Not After : Apr 17 17:59:38 2029 GMT
        Subject: DC=org, DC=simple, O=Simple Inc, OU=Simple Signing CA, CN=Simple Signing CA
        Subject Public Key Info:
            Public Key Algorithm: rsaEncryption
                Public-Key: (2048 bit)
                Modulus:
                    00:b8:27:05:23:5f:76:36:7b:f3:ab:23:cb:54:aa:
                    2d:d9:c8:e7:94:98:48:d4:8e:ed:a1:b8:cb:f3:54:
                    68:c5:ea:8d:53:1b:55:77:70:ab:8d:b7:e3:df:15:
                    35:88:c8:8d:67:fd:b8:30:51:81:13:f2:73:ae:f0:
                    e9:82:05:70:6a:ad:03:cc:ba:6f:ad:33:f9:4d:db:
                    da:da:45:5b:0e:49:8b:4b:c1:34:5d:93:79:41:03:
                    85:a1:28:91:08:e1:c6:17:f4:91:72:d8:d5:fc:fe:
                    25:05:62:d9:9b:ce:ca:65:9c:19:3a:8b:b8:b5:b4:
                    cb:0e:9f:9e:25:92:da:d0:b5:f6:c8:e9:e5:62:c5:
                    7e:3e:2d:20:3c:db:bb:bb:f7:fd:06:aa:5f:44:50:
                    5f:0b:37:63:61:f4:c1:09:b8:67:9b:fe:1a:bf:93:
                    b0:4e:d8:28:9b:2d:51:5e:d5:b9:c9:c3:6b:57:71:
                    4b:0a:09:f4:29:b5:13:5b:8d:03:60:33:7d:98:a4:
                    97:32:5d:7a:21:21:92:da:ab:ed:d6:46:50:ef:99:
                    33:a3:91:93:4e:f8:18:ca:d4:78:6d:e8:56:f3:58:
                    d4:ce:e9:7c:19:4c:45:eb:3c:84:79:3d:ac:db:92:
                    05:03:24:3d:69:bc:ab:f2:9b:10:40:b0:d6:3e:c1:
                    a4:c3
                Exponent: 65537 (0x10001)
        X509v3 extensions:
            X509v3 Key Usage: critical
                Certificate Sign, CRL Sign
            X509v3 Basic Constraints: critical
                CA:TRUE, pathlen:0
            X509v3 Subject Key Identifier: 
                99:BE:BF:71:7D:FE:2F:8B:25:50:97:8C:A7:F4:C9:59:04:65:73:18
            X509v3 Authority Key Identifier: 
                keyid:59:49:C5:50:EE:B5:B3:3D:A6:46:DD:3F:F0:6B:EC:68:46:99:EE:35

    Signature Algorithm: sha1WithRSAEncryption
         82:87:4a:18:a0:6e:73:09:ea:5e:d0:63:7a:92:ad:2c:be:48:
         24:71:d0:69:e9:6a:31:70:0a:b6:c9:06:d7:2d:18:90:ae:db:
         ba:92:63:5d:db:96:90:90:73:6a:97:04:04:59:bc:52:ee:06:
         05:2f:33:da:68:d7:a6:33:5a:cc:95:da:03:4a:58:4c:79:30:
         99:12:d7:c9:f3:eb:ba:49:fa:12:6b:5f:57:ed:0e:5b:57:8f:
         5b:ce:2c:cf:a8:d5:8e:cd:6a:c9:82:a3:13:1d:68:81:a9:a9:
         c4:54:88:dd:44:ab:7c:86:25:01:30:81:31:10:1e:7d:e9:10:
         2d:bc:8f:d3:6d:01:c4:4b:c4:f2:27:1c:34:ae:cb:c0:e5:ed:
         a1:3f:a8:5f:a3:e9:23:cb:6a:cc:14:a0:f2:56:04:33:99:aa:
         ad:25:e5:31:56:be:02:6d:3c:c2:57:73:32:e4:e0:d3:1e:65:
         fb:75:85:bd:fe:8a:de:88:e8:14:64:57:02:22:60:6f:24:01:
         4a:4f:52:7d:71:e8:af:51:75:61:82:f1:2c:a9:66:f1:20:e5:
         31:ec:84:a1:31:4b:e2:7c:b0:32:a0:6e:1e:cd:45:09:1f:10:
         06:ee:72:2e:0a:f1:42:93:25:c5:84:3d:b3:bb:d5:88:70:c0:
         3a:0f:5d:99
-----BEGIN CERTIFICATE-----
MIIDzzCCAregAwIBAgIBAjANBgkqhkiG9w0BAQUFADB0MRMwEQYKCZImiZPyLGQB
GRYDb3JnMRYwFAYKCZImiZPyLGQBGRYGc2ltcGxlMRMwEQYDVQQKDApTaW1wbGUg
SW5jMRcwFQYDVQQLDA5TaW1wbGUgUm9vdCBDQTEXMBUGA1UEAwwOU2ltcGxlIFJv
b3QgQ0EwHhcNMTkwNDE4MTc1OTM4WhcNMjkwNDE3MTc1OTM4WjB6MRMwEQYKCZIm
iZPyLGQBGRYDb3JnMRYwFAYKCZImiZPyLGQBGRYGc2ltcGxlMRMwEQYDVQQKDApT
aW1wbGUgSW5jMRowGAYDVQQLDBFTaW1wbGUgU2lnbmluZyBDQTEaMBgGA1UEAwwR
U2ltcGxlIFNpZ25pbmcgQ0EwggEiMA0GCSqGSIb3DQEBAQUAA4IBDwAwggEKAoIB
AQC4JwUjX3Y2e/OrI8tUqi3ZyOeUmEjUju2huMvzVGjF6o1TG1V3cKuNt+PfFTWI
yI1n/bgwUYET8nOu8OmCBXBqrQPMum+tM/lN29raRVsOSYtLwTRdk3lBA4WhKJEI
4cYX9JFy2NX8/iUFYtmbzsplnBk6i7i1tMsOn54lktrQtfbI6eVixX4+LSA827u7
9/0Gql9EUF8LN2Nh9MEJuGeb/hq/k7BO2CibLVFe1bnJw2tXcUsKCfQptRNbjQNg
M32YpJcyXXohIZLaq+3WRlDvmTOjkZNO+BjK1Hht6FbzWNTO6XwZTEXrPIR5Pazb
kgUDJD1pvKvymxBAsNY+waTDAgMBAAGjZjBkMA4GA1UdDwEB/wQEAwIBBjASBgNV
HRMBAf8ECDAGAQH/AgEAMB0GA1UdDgQWBBSZvr9xff4viyVQl4yn9MlZBGVzGDAf
BgNVHSMEGDAWgBRZScVQ7rWzPaZG3T/wa+xoRpnuNTANBgkqhkiG9w0BAQUFAAOC
AQEAgodKGKBucwnqXtBjepKtLL5IJHHQaelqMXAKtskG1y0YkK7bupJjXduWkJBz
apcEBFm8Uu4GBS8z2mjXpjNazJXaA0pYTHkwmRLXyfPrukn6EmtfV+0OW1ePW84s
z6jVjs1qyYKjEx1ogampxFSI3USrfIYlATCBMRAefekQLbyP020BxEvE8iccNK7L
wOXtoT+oX6PpI8tqzBSg8lYEM5mqrSXlMVa+Am08wldzMuTg0x5l+3WFvf6K3ojo
FGRXAiJgbyQBSk9SfXHor1F1YYLxLKlm8SDlMeyEoTFL4nywMqBuHs1FCR8QBu5y
LgrxQpMlxYQ9s7vViHDAOg9dmQ==
-----END CERTIFICATE-----
Certificate:
    Data:
        Version: 3 (0x2)
        Serial Number: 1 (0x1)
    Signature Algorithm: sha1WithRSAEncryption
        Issuer: DC=org, DC=simple, O=Simple Inc, OU=Simple Root CA, CN=Simple Root CA
        Validity
            Not Before: Apr 18 17:58:12 2019 GMT
            Not After : Apr 17 17:58:12 2029 GMT
        Subject: DC=org, DC=simple, O=Simple Inc, OU=Simple Root CA, CN=Simple Root CA
        Subject Public Key Info:
            Public Key Algorithm: rsaEncryption
                Public-Key: (2048 bit)
                Modulus:
                    00:ac:a1:6d:b7:b9:9f:56:56:f6:7f:a5:69:3a:47:
                    a2:ab:a6:a3:40:ec:ca:cf:12:f2:91:2a:c2:a6:ee:
                    dd:75:d6:f6:e1:7b:d1:3c:26:a0:41:38:6d:14:ee:
                    5b:71:03:ca:9f:0f:39:75:6d:a1:3e:82:05:78:54:
                    9d:47:82:8c:1c:25:b0:e6:bf:e6:b4:c5:e4:26:a5:
                    1b:f7:e9:f4:f5:0a:6e:c9:54:41:46:86:1b:b4:48:
                    97:70:75:6d:2d:ba:4a:e4:09:38:82:b0:71:2f:5a:
                    21:ff:25:f8:23:bd:6a:9f:8f:9d:41:44:7a:6f:b9:
                    ca:34:96:11:03:c6:16:5a:b6:f6:cc:7a:ca:0b:8d:
                    d3:a8:38:c3:9c:6a:38:ee:9a:72:80:c6:83:bc:ce:
                    7e:43:56:74:52:3f:31:09:f2:4b:6a:5f:44:a6:aa:
                    d9:fb:9a:dd:f2:70:6a:3b:bc:33:85:fe:53:d3:cf:
                    40:5c:33:8a:2f:4a:fd:f3:9a:51:05:a4:37:25:5f:
                    a3:51:cb:75:27:e4:0a:60:1f:2d:fd:53:14:16:09:
                    1d:e7:78:4c:b0:02:7f:a9:c7:a5:fc:70:f2:5c:bd:
                    9e:a8:69:2e:02:e1:8e:60:88:69:34:8f:5d:c5:3e:
                    b6:0e:16:b6:66:a1:1c:14:0a:ec:c6:13:47:fa:f5:
                    a2:17
                Exponent: 65537 (0x10001)
        X509v3 extensions:
            X509v3 Key Usage: critical
                Certificate Sign, CRL Sign
            X509v3 Basic Constraints: critical
                CA:TRUE
            X509v3 Subject Key Identifier: 
                59:49:C5:50:EE:B5:B3:3D:A6:46:DD:3F:F0:6B:EC:68:46:99:EE:35
            X509v3 Authority Key Identifier: 
                keyid:59:49:C5:50:EE:B5:B3:3D:A6:46:DD:3F:F0:6B:EC:68:46:99:EE:35

    Signature Algorithm: sha1WithRSAEncryption
         ac:74:6f:43:da:38:90:31:ef:2a:29:03:82:fa:33:e2:39:2f:
         ea:92:bb:39:4f:46:41:3c:34:88:21:36:07:49:4b:17:32:45:
         32:57:de:84:18:f9:84:26:2c:27:fc:b5:a9:65:ed:5d:51:d2:
         17:11:57:39:9d:60:7a:99:05:ef:76:bb:bd:69:92:54:06:b5:
         6d:b2:2b:fa:b4:94:9c:0a:34:1b:b6:7e:48:ba:37:63:4e:31:
         c4:6b:09:c6:b1:bf:68:1d:64:12:db:b6:81:28:a6:88:83:b1:
         4d:0c:25:25:bc:2d:f3:d0:42:b9:68:aa:cd:2a:8e:c9:f4:b0:
         57:63:c3:91:cd:80:2d:ca:a7:72:41:30:01:88:95:52:f1:74:
         5c:c7:dc:ce:3d:7d:96:99:8a:26:e3:ec:4f:cb:73:63:3b:47:
         2e:cb:43:2e:49:16:76:06:5e:ac:7f:c7:67:d7:17:4b:da:5c:
         4a:20:0c:fb:aa:09:05:5f:0f:af:c0:cb:1a:79:04:ef:9c:fc:
         6e:1a:10:7c:83:90:58:89:ee:b3:b5:4a:a8:56:34:d5:ea:59:
         85:b5:9d:23:06:14:90:d2:da:76:6d:fa:6e:93:94:2e:01:87:
         7d:62:f8:2c:a3:6b:58:16:3b:d0:63:cd:0f:b1:50:c9:b8:53:
         d2:33:b6:4b
-----BEGIN CERTIFICATE-----
MIIDxjCCAq6gAwIBAgIBATANBgkqhkiG9w0BAQUFADB0MRMwEQYKCZImiZPyLGQB
GRYDb3JnMRYwFAYKCZImiZPyLGQBGRYGc2ltcGxlMRMwEQYDVQQKDApTaW1wbGUg
SW5jMRcwFQYDVQQLDA5TaW1wbGUgUm9vdCBDQTEXMBUGA1UEAwwOU2ltcGxlIFJv
b3QgQ0EwHhcNMTkwNDE4MTc1ODEyWhcNMjkwNDE3MTc1ODEyWjB0MRMwEQYKCZIm
iZPyLGQBGRYDb3JnMRYwFAYKCZImiZPyLGQBGRYGc2ltcGxlMRMwEQYDVQQKDApT
aW1wbGUgSW5jMRcwFQYDVQQLDA5TaW1wbGUgUm9vdCBDQTEXMBUGA1UEAwwOU2lt
cGxlIFJvb3QgQ0EwggEiMA0GCSqGSIb3DQEBAQUAA4IBDwAwggEKAoIBAQCsoW23
uZ9WVvZ/pWk6R6KrpqNA7MrPEvKRKsKm7t111vbhe9E8JqBBOG0U7ltxA8qfDzl1
baE+ggV4VJ1HgowcJbDmv+a0xeQmpRv36fT1Cm7JVEFGhhu0SJdwdW0tukrkCTiC
sHEvWiH/JfgjvWqfj51BRHpvuco0lhEDxhZatvbMesoLjdOoOMOcajjumnKAxoO8
zn5DVnRSPzEJ8ktqX0Smqtn7mt3ycGo7vDOF/lPTz0BcM4ovSv3zmlEFpDclX6NR
y3Un5ApgHy39UxQWCR3neEywAn+px6X8cPJcvZ6oaS4C4Y5giGk0j13FPrYOFrZm
oRwUCuzGE0f69aIXAgMBAAGjYzBhMA4GA1UdDwEB/wQEAwIBBjAPBgNVHRMBAf8E
BTADAQH/MB0GA1UdDgQWBBRZScVQ7rWzPaZG3T/wa+xoRpnuNTAfBgNVHSMEGDAW
gBRZScVQ7rWzPaZG3T/wa+xoRpnuNTANBgkqhkiG9w0BAQUFAAOCAQEArHRvQ9o4
kDHvKikDgvoz4jkv6pK7OU9GQTw0iCE2B0lLFzJFMlfehBj5hCYsJ/y1qWXtXVHS
FxFXOZ1gepkF73a7vWmSVAa1bbIr+rSUnAo0G7Z+SLo3Y04xxGsJxrG/aB1kEtu2
gSimiIOxTQwlJbwt89BCuWiqzSqOyfSwV2PDkc2ALcqnckEwAYiVUvF0XMfczj19
lpmKJuPsT8tzYztHLstDLkkWdgZerH/HZ9cXS9pcSiAM+6oJBV8Pr8DLGnkE75z8
bhoQfIOQWInus7VKqFY01epZhbWdIwYUkNLadm36bpOULgGHfWL4LKNrWBY70GPN
D7FQybhT0jO2Sw==
-----END CERTIFICATE-----
