Certificate:
    Data:
        Version: 3 (0x2)
        Serial Number: 2 (0x2)
    Signature Algorithm: sha1WithRSAEncryption
        Issuer: DC=org, DC=simple, O=Simple Inc, OU=Simple Root CA, CN=Simple Root CA
        Validity
            Not Before: Apr 18 17:59:38 2019 GMT
            Not After : Apr 17 17:59:38 2029 GMT
        Subject: DC=org, DC=simple, O=Simple Inc, OU=Simple Signing CA, CN=Simple Signing CA
        Subject Public Key Info:
            Public Key Algorithm: rsaEncryption
                Public-Key: (2048 bit)
                Modulus:
                    00:b8:27:05:23:5f:76:36:7b:f3:ab:23:cb:54:aa:
                    2d:d9:c8:e7:94:98:48:d4:8e:ed:a1:b8:cb:f3:54:
                    68:c5:ea:8d:53:1b:55:77:70:ab:8d:b7:e3:df:15:
                    35:88:c8:8d:67:fd:b8:30:51:81:13:f2:73:ae:f0:
                    e9:82:05:70:6a:ad:03:cc:ba:6f:ad:33:f9:4d:db:
                    da:da:45:5b:0e:49:8b:4b:c1:34:5d:93:79:41:03:
                    85:a1:28:91:08:e1:c6:17:f4:91:72:d8:d5:fc:fe:
                    25:05:62:d9:9b:ce:ca:65:9c:19:3a:8b:b8:b5:b4:
                    cb:0e:9f:9e:25:92:da:d0:b5:f6:c8:e9:e5:62:c5:
                    7e:3e:2d:20:3c:db:bb:bb:f7:fd:06:aa:5f:44:50:
                    5f:0b:37:63:61:f4:c1:09:b8:67:9b:fe:1a:bf:93:
                    b0:4e:d8:28:9b:2d:51:5e:d5:b9:c9:c3:6b:57:71:
                    4b:0a:09:f4:29:b5:13:5b:8d:03:60:33:7d:98:a4:
                    97:32:5d:7a:21:21:92:da:ab:ed:d6:46:50:ef:99:
                    33:a3:91:93:4e:f8:18:ca:d4:78:6d:e8:56:f3:58:
                    d4:ce:e9:7c:19:4c:45:eb:3c:84:79:3d:ac:db:92:
                    05:03:24:3d:69:bc:ab:f2:9b:10:40:b0:d6:3e:c1:
                    a4:c3
                Exponent: 65537 (0x10001)
        X509v3 extensions:
            X509v3 Key Usage: critical
                Certificate Sign, CRL Sign
            X509v3 Basic Constraints: critical
                CA:TRUE, pathlen:0
            X509v3 Subject Key Identifier: 
                99:BE:BF:71:7D:FE:2F:8B:25:50:97:8C:A7:F4:C9:59:04:65:73:18
            X509v3 Authority Key Identifier: 
                keyid:59:49:C5:50:EE:B5:B3:3D:A6:46:DD:3F:F0:6B:EC:68:46:99:EE:35

    Signature Algorithm: sha1WithRSAEncryption
         82:87:4a:18:a0:6e:73:09:ea:5e:d0:63:7a:92:ad:2c:be:48:
         24:71:d0:69:e9:6a:31:70:0a:b6:c9:06:d7:2d:18:90:ae:db:
         ba:92:63:5d:db:96:90:90:73:6a:97:04:04:59:bc:52:ee:06:
         05:2f:33:da:68:d7:a6:33:5a:cc:95:da:03:4a:58:4c:79:30:
         99:12:d7:c9:f3:eb:ba:49:fa:12:6b:5f:57:ed:0e:5b:57:8f:
         5b:ce:2c:cf:a8:d5:8e:cd:6a:c9:82:a3:13:1d:68:81:a9:a9:
         c4:54:88:dd:44:ab:7c:86:25:01:30:81:31:10:1e:7d:e9:10:
         2d:bc:8f:d3:6d:01:c4:4b:c4:f2:27:1c:34:ae:cb:c0:e5:ed:
         a1:3f:a8:5f:a3:e9:23:cb:6a:cc:14:a0:f2:56:04:33:99:aa:
         ad:25:e5:31:56:be:02:6d:3c:c2:57:73:32:e4:e0:d3:1e:65:
         fb:75:85:bd:fe:8a:de:88:e8:14:64:57:02:22:60:6f:24:01:
         4a:4f:52:7d:71:e8:af:51:75:61:82:f1:2c:a9:66:f1:20:e5:
         31:ec:84:a1:31:4b:e2:7c:b0:32:a0:6e:1e:cd:45:09:1f:10:
         06:ee:72:2e:0a:f1:42:93:25:c5:84:3d:b3:bb:d5:88:70:c0:
         3a:0f:5d:99
-----BEGIN CERTIFICATE-----
MIIDzzCCAregAwIBAgIBAjANBgkqhkiG9w0BAQUFADB0MRMwEQYKCZImiZPyLGQB
GRYDb3JnMRYwFAYKCZImiZPyLGQBGRYGc2ltcGxlMRMwEQYDVQQKDApTaW1wbGUg
SW5jMRcwFQYDVQQLDA5TaW1wbGUgUm9vdCBDQTEXMBUGA1UEAwwOU2ltcGxlIFJv
b3QgQ0EwHhcNMTkwNDE4MTc1OTM4WhcNMjkwNDE3MTc1OTM4WjB6MRMwEQYKCZIm
iZPyLGQBGRYDb3JnMRYwFAYKCZImiZPyLGQBGRYGc2ltcGxlMRMwEQYDVQQKDApT
aW1wbGUgSW5jMRowGAYDVQQLDBFTaW1wbGUgU2lnbmluZyBDQTEaMBgGA1UEAwwR
U2ltcGxlIFNpZ25pbmcgQ0EwggEiMA0GCSqGSIb3DQEBAQUAA4IBDwAwggEKAoIB
AQC4JwUjX3Y2e/OrI8tUqi3ZyOeUmEjUju2huMvzVGjF6o1TG1V3cKuNt+PfFTWI
yI1n/bgwUYET8nOu8OmCBXBqrQPMum+tM/lN29raRVsOSYtLwTRdk3lBA4WhKJEI
4cYX9JFy2NX8/iUFYtmbzsplnBk6i7i1tMsOn54lktrQtfbI6eVixX4+LSA827u7
9/0Gql9EUF8LN2Nh9MEJuGeb/hq/k7BO2CibLVFe1bnJw2tXcUsKCfQptRNbjQNg
M32YpJcyXXohIZLaq+3WRlDvmTOjkZNO+BjK1Hht6FbzWNTO6XwZTEXrPIR5Pazb
kgUDJD1pvKvymxBAsNY+waTDAgMBAAGjZjBkMA4GA1UdDwEB/wQEAwIBBjASBgNV
HRMBAf8ECDAGAQH/AgEAMB0GA1UdDgQWBBSZvr9xff4viyVQl4yn9MlZBGVzGDAf
BgNVHSMEGDAWgBRZScVQ7rWzPaZG3T/wa+xoRpnuNTANBgkqhkiG9w0BAQUFAAOC
AQEAgodKGKBucwnqXtBjepKtLL5IJHHQaelqMXAKtskG1y0YkK7bupJjXduWkJBz
apcEBFm8Uu4GBS8z2mjXpjNazJXaA0pYTHkwmRLXyfPrukn6EmtfV+0OW1ePW84s
z6jVjs1qyYKjEx1ogampxFSI3USrfIYlATCBMRAefekQLbyP020BxEvE8iccNK7L
wOXtoT+oX6PpI8tqzBSg8lYEM5mqrSXlMVa+Am08wldzMuTg0x5l+3WFvf6K3ojo
FGRXAiJgbyQBSk9SfXHor1F1YYLxLKlm8SDlMeyEoTFL4nywMqBuHs1FCR8QBu5y
LgrxQpMlxYQ9s7vViHDAOg9dmQ==
-----END CERTIFICATE-----
